Certificate:
    Data:
        Version: 3 (0x2)
        Serial Number: 1 (0x1)
        Signature Algorithm: sha256WithRSAEncryption
        Issuer: C=CA, ST=Ontario, L=Waterloo, O=Brayden DevOps Inc./emailAddress=braydeny050@gmail.com, CN=Certificate_Authority
        Validity
            Not Before: Aug 17 05:31:14 2022 GMT
            Not After : Aug 14 05:31:14 2032 GMT
        Subject: C=CA, ST=Ontario, O=Brayden DevOps Inc., CN=Server_Certificate/emailAddress=braydeny050@gmail.com
        Subject Public Key Info:
            Public Key Algorithm: rsaEncryption
                Public-Key: (2048 bit)
                Modulus:
                    00:ac:e0:3e:d5:a8:b6:c0:be:1b:0d:98:cd:d1:7b:
                    4d:31:66:ac:b4:ca:e5:89:f2:8c:3c:db:f7:4d:38:
                    1d:96:65:74:05:74:08:41:8d:cc:af:32:61:89:67:
                    b9:60:c9:27:71:5b:0f:83:49:00:21:47:5c:5d:11:
                    7b:93:91:a5:f8:aa:0b:49:71:55:60:d9:5b:fe:d6:
                    08:d1:92:81:82:ce:9f:55:86:81:b7:a6:6f:ae:3f:
                    6b:79:18:74:99:8a:98:12:90:2f:68:57:3b:ec:bd:
                    59:03:95:00:3f:42:31:23:6b:eb:74:0b:3f:0e:f2:
                    cc:03:12:25:43:11:05:1f:d6:cb:4f:0d:0d:fa:00:
                    6e:09:8f:a6:9c:5f:be:28:4c:9a:6f:92:4d:66:0d:
                    37:fb:fc:1d:e5:89:3c:2f:cf:11:75:bc:58:0c:4c:
                    fd:45:59:09:75:87:6d:79:b6:0a:78:a9:dd:0d:a5:
                    2f:5e:80:64:cd:a2:82:6b:44:62:09:cc:77:e2:c2:
                    60:8f:02:f6:9d:1c:25:7f:4a:1c:77:7a:f7:16:1e:
                    dc:a7:ea:42:0d:ec:3c:0d:59:8a:4b:74:fd:ea:47:
                    ad:de:39:36:57:e6:f1:63:4a:ab:0a:92:dd:1c:d0:
                    8c:25:46:49:ee:f7:50:5e:02:89:34:4a:e3:b9:b5:
                    a0:e3
                Exponent: 65537 (0x10001)
        X509v3 extensions:
            X509v3 Extended Key Usage: 
                TLS Web Server Authentication
            X509v3 CRL Distribution Points: 
                Full Name:
                  URI:http://auth.nas.org/ca.crl
            X509v3 Certificate Policies: 
                Policy: 1.3.6.1.4.1.40808.1.3.2
            X509v3 Subject Key Identifier: 
                00:75:72:DC:C3:9B:D5:90:E1:E0:1B:AC:29:1C:CB:13:2A:5E:F1:C2
            X509v3 Authority Key Identifier: 
                C2:41:6C:5D:58:7E:D6:A8:24:03:03:31:DB:EB:D3:49:F8:C0:14:16
    Signature Algorithm: sha256WithRSAEncryption
    Signature Value:
        46:b7:e5:51:4a:dd:4e:16:1a:a2:02:31:33:03:f1:98:f6:17:
        7b:d1:11:16:f4:28:79:48:39:0b:e5:9a:19:d9:48:7f:1d:fb:
        33:3c:c6:d0:c1:ef:91:a3:ca:39:60:52:1b:2a:42:03:c2:6e:
        65:34:a9:69:c2:c1:bb:00:78:de:bd:c5:6c:97:16:86:3c:75:
        fc:54:9d:20:a9:d4:13:4e:23:ab:a7:db:1f:4d:1b:86:a4:17:
        86:ec:0b:ee:6c:01:1f:0b:1f:04:77:8a:6b:71:71:94:8a:89:
        51:91:22:9c:58:8f:29:76:19:12:88:41:d6:2d:46:f4:03:ab:
        61:42:b7:b2:9f:53:8e:1e:3e:14:33:6c:06:68:3c:92:84:00:
        7a:24:9c:8c:4d:69:25:ae:4e:7b:e0:3b:ab:38:28:52:27:6b:
        6c:5c:88:1c:2b:b3:4c:88:23:ca:1a:97:54:b7:7b:36:8a:cd:
        a6:69:ba:f0:06:05:c4:1b:04:de:52:78:ce:f9:b5:40:7d:fc:
        e3:e6:06:b5:76:8b:bc:0d:0f:1d:13:ed:87:6d:f1:e9:50:1b:
        d9:dc:80:24:15:7d:a5:72:e6:0e:8b:93:27:fe:73:3b:df:26:
        fb:3d:de:6d:c4:45:0b:c2:df:8e:11:3e:eb:21:96:9c:90:22:
        e4:f7:7b:3a
-----BEGIN CERTIFICATE-----
MIIEMzCCAxugAwIBAgIBATANBgkqhkiG9w0BAQsFADCBljELMAkGA1UEBhMCQ0Ex
EDAOBgNVBAgMB09udGFyaW8xETAPBgNVBAcMCFdhdGVybG9vMRwwGgYDVQQKDBNC
cmF5ZGVuIERldk9wcyBJbmMuMSQwIgYJKoZIhvcNAQkBFhVicmF5ZGVueTA1MEBn
bWFpbC5jb20xHjAcBgNVBAMMFUNlcnRpZmljYXRlX0F1dGhvcml0eTAeFw0yMjA4
MTcwNTMxMTRaFw0zMjA4MTQwNTMxMTRaMIGAMQswCQYDVQQGEwJDQTEQMA4GA1UE
CAwHT250YXJpbzEcMBoGA1UECgwTQnJheWRlbiBEZXZPcHMgSW5jLjEbMBkGA1UE
AwwSU2VydmVyX0NlcnRpZmljYXRlMSQwIgYJKoZIhvcNAQkBFhVicmF5ZGVueTA1
MEBnbWFpbC5jb20wggEiMA0GCSqGSIb3DQEBAQUAA4IBDwAwggEKAoIBAQCs4D7V
qLbAvhsNmM3Re00xZqy0yuWJ8ow82/dNOB2WZXQFdAhBjcyvMmGJZ7lgySdxWw+D
SQAhR1xdEXuTkaX4qgtJcVVg2Vv+1gjRkoGCzp9VhoG3pm+uP2t5GHSZipgSkC9o
VzvsvVkDlQA/QjEja+t0Cz8O8swDEiVDEQUf1stPDQ36AG4Jj6acX74oTJpvkk1m
DTf7/B3liTwvzxF1vFgMTP1FWQl1h215tgp4qd0NpS9egGTNooJrRGIJzHfiwmCP
AvadHCV/Shx3evcWHtyn6kIN7DwNWYpLdP3qR63eOTZX5vFjSqsKkt0c0IwlRknu
91BeAok0SuO5taDjAgMBAAGjgZ8wgZwwEwYDVR0lBAwwCgYIKwYBBQUHAwEwKwYD
VR0fBCQwIjAgoB6gHIYaaHR0cDovL2F1dGgubmFzLm9yZy9jYS5jcmwwGAYDVR0g
BBEwDzANBgsrBgEEAYK+aAEDAjAdBgNVHQ4EFgQUAHVy3MOb1ZDh4BusKRzLEype
8cIwHwYDVR0jBBgwFoAUwkFsXVh+1qgkAwMx2+vTSfjAFBYwDQYJKoZIhvcNAQEL
BQADggEBAEa35VFK3U4WGqICMTMD8Zj2F3vRERb0KHlIOQvlmhnZSH8d+zM8xtDB
75GjyjlgUhsqQgPCbmU0qWnCwbsAeN69xWyXFoY8dfxUnSCp1BNOI6un2x9NG4ak
F4bsC+5sAR8LHwR3imtxcZSKiVGRIpxYjyl2GRKIQdYtRvQDq2FCt7KfU44ePhQz
bAZoPJKEAHoknIxNaSWuTnvgO6s4KFIna2xciBwrs0yII8oal1S3ezaKzaZpuvAG
BcQbBN5SeM75tUB9/OPmBrV2i7wNDx0T7Ydt8elQG9ncgCQVfaVy5g6Lkyf+czvf
Jvs93m3ERQvC344RPushlpyQIuT3ezo=
-----END CERTIFICATE-----
